; Function Attrs: mustprogress nofree norecurse nosync nounwind willreturn memory(argmem: readwrite) uwtable
define internal ptr @lxb_html_tokenizer_state_rawtext_less_than_sign(ptr nocapture noundef writeonly %0, ptr noundef readonly %1, ptr nocapture readnone %2) #2 {
  %4 = load i8, ptr %1, align 1
  %5 = icmp eq i8 %4, 47
  %spec.select = select i1 %5, ptr @lxb_html_tokenizer_state_rawtext_end_tag_open, ptr @lxb_html_tokenizer_state_rawtext
  %spec.select6.idx = zext i1 %5 to i64
  %spec.select6 = getelementptr inbounds i8, ptr %1, i64 %spec.select6.idx
  store ptr %spec.select, ptr %0, align 8
  ret ptr %spec.select6
}